target datalayout = "e-m:e-p270:32:32-p271:32:32-p272:64:64-i64:64-i128:128-f80:128-n8:16:32:64-S128"
target triple = "x86_64-pc-linux-gnu"

%struct.FunctionCallInfoBaseData = type { ptr, ptr, ptr, i32, i8, i16, [0 x %struct.NullableDatum] }
%struct.NullableDatum = type { i64, i8 }
%struct.anon = type { i32, [0 x i8] }
%struct.varattrib_1b = type { i8, [0 x i8] }
%struct.varattrib_1b_e = type { i8, i8, [0 x i8] }

@.str.12 = private unnamed_addr constant [10 x i8] c"lowrite()\00", align 1

; Function Attrs: inlinehint nounwind uwtable
define internal i64 @Int32GetDatum(i32 noundef %0) #2 {
  %2 = alloca i32, align 4
  store i32 %0, ptr %2, align 4
  %3 = load i32, ptr %2, align 4
  %4 = sext i32 %3 to i64
  ret i64 %4
}

; Function Attrs: inlinehint nounwind uwtable
define internal ptr @DatumGetPointer(i64 noundef %0) #2 {
  %2 = alloca i64, align 8
  store i64 %0, ptr %2, align 8
  %3 = load i64, ptr %2, align 8
  %4 = inttoptr i64 %3 to ptr
  ret ptr %4
}

; Function Attrs: inlinehint nounwind uwtable
define internal i32 @DatumGetInt32(i64 noundef %0) #2 {
  %2 = alloca i64, align 8
  store i64 %0, ptr %2, align 8
  %3 = load i64, ptr %2, align 8
  %4 = trunc i64 %3 to i32
  ret i32 %4
}

; Function Attrs: nounwind uwtable
define dso_local i64 @be_lowrite(ptr noundef %0) #0 {
  %2 = alloca ptr, align 8
  %3 = alloca i32, align 4
  %4 = alloca ptr, align 8
  %5 = alloca i32, align 4
  %6 = alloca i32, align 4
  store ptr %0, ptr %2, align 8
  call void @llvm.lifetime.start.p0(i64 4, ptr %3) #8
  %7 = load ptr, ptr %2, align 8
  %8 = getelementptr inbounds nuw %struct.FunctionCallInfoBaseData, ptr %7, i32 0, i32 6
  %9 = getelementptr inbounds [0 x %struct.NullableDatum], ptr %8, i64 0, i64 0
  %10 = getelementptr inbounds nuw %struct.NullableDatum, ptr %9, i32 0, i32 0
  %11 = load i64, ptr %10, align 8
  %12 = call i32 @DatumGetInt32(i64 noundef %11)
  store i32 %12, ptr %3, align 4
  call void @llvm.lifetime.start.p0(i64 8, ptr %4) #8
  %13 = load ptr, ptr %2, align 8
  %14 = getelementptr inbounds nuw %struct.FunctionCallInfoBaseData, ptr %13, i32 0, i32 6
  %15 = getelementptr inbounds [0 x %struct.NullableDatum], ptr %14, i64 0, i64 1
  %16 = getelementptr inbounds nuw %struct.NullableDatum, ptr %15, i32 0, i32 0
  %17 = load i64, ptr %16, align 8
  %18 = call ptr @DatumGetPointer(i64 noundef %17)
  %19 = call ptr @pg_detoast_datum_packed(ptr noundef %18)
  store ptr %19, ptr %4, align 8
  call void @llvm.lifetime.start.p0(i64 4, ptr %5) #8
  call void @llvm.lifetime.start.p0(i64 4, ptr %6) #8
  call void @PreventCommandIfReadOnly(ptr noundef @.str.12)
  %20 = load ptr, ptr %4, align 8
  %21 = getelementptr inbounds nuw %struct.varattrib_1b, ptr %20, i32 0, i32 0
  %22 = load i8, ptr %21, align 1
  %23 = zext i8 %22 to i32
  %24 = icmp eq i32 %23, 1
  br i1 %24, label %25, label %53

25:                                               ; preds = %1
  %26 = load ptr, ptr %4, align 8
  %27 = getelementptr inbounds nuw %struct.varattrib_1b_e, ptr %26, i32 0, i32 1
  %28 = load i8, ptr %27, align 1
  %29 = zext i8 %28 to i32
  %30 = icmp eq i32 %29, 1
  br i1 %30, label %31, label %32

31:                                               ; preds = %25
  br label %49

32:                                               ; preds = %25
  %33 = load ptr, ptr %4, align 8
  %34 = getelementptr inbounds nuw %struct.varattrib_1b_e, ptr %33, i32 0, i32 1
  %35 = load i8, ptr %34, align 1
  %36 = zext i8 %35 to i32
  %37 = and i32 %36, -2
  %38 = icmp eq i32 %37, 2
  br i1 %38, label %39, label %40

39:                                               ; preds = %32
  br label %47

40:                                               ; preds = %32
  %41 = load ptr, ptr %4, align 8
  %42 = getelementptr inbounds nuw %struct.varattrib_1b_e, ptr %41, i32 0, i32 1
  %43 = load i8, ptr %42, align 1
  %44 = zext i8 %43 to i32
  %45 = icmp eq i32 %44, 18
  %46 = select i1 %45, i64 16, i64 0
  br label %47

47:                                               ; preds = %40, %39
  %48 = phi i64 [ 8, %39 ], [ %46, %40 ]
  br label %49

49:                                               ; preds = %47, %31
  %50 = phi i64 [ 8, %31 ], [ %48, %47 ]
  %51 = add i64 2, %50
  %52 = sub i64 %51, 2
  br label %79

53:                                               ; preds = %1
  %54 = load ptr, ptr %4, align 8
  %55 = getelementptr inbounds nuw %struct.varattrib_1b, ptr %54, i32 0, i32 0
  %56 = load i8, ptr %55, align 1
  %57 = zext i8 %56 to i32
  %58 = and i32 %57, 1
  %59 = icmp eq i32 %58, 1
  br i1 %59, label %60, label %69

60:                                               ; preds = %53
  %61 = load ptr, ptr %4, align 8
  %62 = getelementptr inbounds nuw %struct.varattrib_1b, ptr %61, i32 0, i32 0
  %63 = load i8, ptr %62, align 1
  %64 = zext i8 %63 to i32
  %65 = ashr i32 %64, 1
  %66 = and i32 %65, 127
  %67 = sext i32 %66 to i64
  %68 = sub i64 %67, 1
  br label %77

69:                                               ; preds = %53
  %70 = load ptr, ptr %4, align 8
  %71 = getelementptr inbounds nuw %struct.anon, ptr %70, i32 0, i32 0
  %72 = load i32, ptr %71, align 4
  %73 = lshr i32 %72, 2
  %74 = and i32 %73, 1073741823
  %75 = sub i32 %74, 4
  %76 = zext i32 %75 to i64
  br label %77

77:                                               ; preds = %69, %60
  %78 = phi i64 [ %68, %60 ], [ %76, %69 ]
  br label %79

79:                                               ; preds = %77, %49
  %80 = phi i64 [ %52, %49 ], [ %78, %77 ]
  %81 = trunc i64 %80 to i32
  store i32 %81, ptr %5, align 4
  %82 = load i32, ptr %3, align 4
  %83 = load ptr, ptr %4, align 8
  %84 = getelementptr inbounds nuw %struct.varattrib_1b, ptr %83, i32 0, i32 0
  %85 = load i8, ptr %84, align 1
  %86 = zext i8 %85 to i32
  %87 = and i32 %86, 1
  %88 = icmp eq i32 %87, 1
  br i1 %88, label %89, label %93

89:                                               ; preds = %79
  %90 = load ptr, ptr %4, align 8
  %91 = getelementptr inbounds nuw %struct.varattrib_1b, ptr %90, i32 0, i32 1
  %92 = getelementptr inbounds [0 x i8], ptr %91, i64 0, i64 0
  br label %97

93:                                               ; preds = %79
  %94 = load ptr, ptr %4, align 8
  %95 = getelementptr inbounds nuw %struct.anon, ptr %94, i32 0, i32 1
  %96 = getelementptr inbounds [0 x i8], ptr %95, i64 0, i64 0
  br label %97

97:                                               ; preds = %93, %89
  %98 = phi ptr [ %92, %89 ], [ %96, %93 ]
  %99 = load i32, ptr %5, align 4
  %100 = call i32 @lo_write(i32 noundef %82, ptr noundef %98, i32 noundef %99)
  store i32 %100, ptr %6, align 4
  %101 = load i32, ptr %6, align 4
  %102 = call i64 @Int32GetDatum(i32 noundef %101)
  call void @llvm.lifetime.end.p0(i64 4, ptr %6) #8
  call void @llvm.lifetime.end.p0(i64 4, ptr %5) #8
  call void @llvm.lifetime.end.p0(i64 8, ptr %4) #8
  call void @llvm.lifetime.end.p0(i64 4, ptr %3) #8
  ret i64 %102
}