; Function Attrs: nounwind uwtable
define dso_local range(i64 -2147483648, 2147483648) i64 @be_lowrite(ptr noundef readonly captures(none) %0) local_unnamed_addr #0 {
  %2 = getelementptr inbounds nuw i8, ptr %0, i64 32
  %3 = load i64, ptr %2, align 8
  %4 = getelementptr inbounds nuw i8, ptr %0, i64 48
  %5 = load i64, ptr %4, align 8
  %6 = inttoptr i64 %5 to ptr
  %7 = tail call ptr @pg_detoast_datum_packed(ptr noundef %6) #10
  tail call void @PreventCommandIfReadOnly(ptr noundef nonnull @.str.12) #10
  %8 = load i8, ptr %7, align 1
  %9 = zext i8 %8 to i32
  %10 = icmp eq i8 %8, 1
  br i1 %10, label %11, label %20

11:                                               ; preds = %1
  %12 = getelementptr inbounds nuw i8, ptr %7, i64 1
  %13 = load i8, ptr %12, align 1
  %14 = icmp eq i8 %13, 1
  %15 = and i8 %13, -2
  %16 = icmp eq i8 %15, 2
  %or.cond = or i1 %14, %16
  %17 = icmp eq i8 %13, 18
  %18 = select i1 %17, i32 16, i32 0
  %19 = select i1 %or.cond, i32 8, i32 %18
  br label %29

20:                                               ; preds = %1
  %21 = and i32 %9, 1
  %.not = icmp eq i32 %21, 0
  br i1 %.not, label %25, label %22

22:                                               ; preds = %20
  %23 = lshr i32 %9, 1
  %24 = add nsw i32 %23, -1
  br label %29

25:                                               ; preds = %20
  %26 = load i32, ptr %7, align 4
  %27 = lshr i32 %26, 2
  %28 = add nsw i32 %27, -4
  br label %29

29:                                               ; preds = %22, %25, %11
  %30 = phi i32 [ %19, %11 ], [ %24, %22 ], [ %28, %25 ]
  %31 = trunc i64 %3 to i32
  %32 = and i8 %8, 1
  %.not15 = icmp eq i8 %32, 0
  %.v = select i1 %.not15, i64 4, i64 1
  %33 = getelementptr inbounds nuw i8, ptr %7, i64 %.v
  %34 = tail call i32 @lo_write(i32 noundef %31, ptr noundef nonnull %33, i32 noundef %30)
  %35 = sext i32 %34 to i64
  ret i64 %35
}